target datalayout = "e-m:e-p270:32:32-p271:32:32-p272:64:64-i64:64-i128:128-f80:128-n8:16:32:64-S128"
target triple = "x86_64-pc-linux-gnu"

%struct.DIST_POINT_NAME_st = type { i32, %union.anon, ptr }
%union.anon = type { ptr }

; Function Attrs: inlinehint nounwind uwtable
define internal ptr @ossl_check_const_X509_NAME_ENTRY_sk_type(ptr noundef %0) #3 {
  %2 = alloca ptr, align 8
  store ptr %0, ptr %2, align 8, !tbaa !67
  %3 = load ptr, ptr %2, align 8, !tbaa !67
  ret ptr %3
}

; Function Attrs: nounwind uwtable
define i32 @DIST_POINT_set_dpname(ptr noundef %0, ptr noundef %1) #0 {
  %3 = alloca i32, align 4
  %4 = alloca ptr, align 8
  %5 = alloca ptr, align 8
  %6 = alloca i32, align 4
  %7 = alloca ptr, align 8
  %8 = alloca ptr, align 8
  %9 = alloca i32, align 4
  store ptr %0, ptr %4, align 8, !tbaa !48
  store ptr %1, ptr %5, align 8, !tbaa !66
  call void @llvm.lifetime.start.p0(i64 4, ptr %6) #5
  call void @llvm.lifetime.start.p0(i64 8, ptr %7) #5
  call void @llvm.lifetime.start.p0(i64 8, ptr %8) #5
  %10 = load ptr, ptr %4, align 8, !tbaa !48
  %11 = icmp eq ptr %10, null
  br i1 %11, label %17, label %12

12:                                               ; preds = %2
  %13 = load ptr, ptr %4, align 8, !tbaa !48
  %14 = getelementptr inbounds nuw %struct.DIST_POINT_NAME_st, ptr %13, i32 0, i32 0
  %15 = load i32, ptr %14, align 8, !tbaa !32
  %16 = icmp ne i32 %15, 1
  br i1 %16, label %17, label %18

17:                                               ; preds = %12, %2
  store i32 1, ptr %3, align 4
  store i32 1, ptr %9, align 4
  br label %74

18:                                               ; preds = %12
  %19 = load ptr, ptr %4, align 8, !tbaa !48
  %20 = getelementptr inbounds nuw %struct.DIST_POINT_NAME_st, ptr %19, i32 0, i32 1
  %21 = load ptr, ptr %20, align 8, !tbaa !31
  store ptr %21, ptr %7, align 8, !tbaa !67
  %22 = load ptr, ptr %4, align 8, !tbaa !48
  %23 = getelementptr inbounds nuw %struct.DIST_POINT_NAME_st, ptr %22, i32 0, i32 2
  %24 = load ptr, ptr %23, align 8, !tbaa !69
  call void @X509_NAME_free(ptr noundef %24)
  %25 = load ptr, ptr %5, align 8, !tbaa !66
  %26 = call ptr @X509_NAME_dup(ptr noundef %25)
  %27 = load ptr, ptr %4, align 8, !tbaa !48
  %28 = getelementptr inbounds nuw %struct.DIST_POINT_NAME_st, ptr %27, i32 0, i32 2
  store ptr %26, ptr %28, align 8, !tbaa !69
  %29 = load ptr, ptr %4, align 8, !tbaa !48
  %30 = getelementptr inbounds nuw %struct.DIST_POINT_NAME_st, ptr %29, i32 0, i32 2
  %31 = load ptr, ptr %30, align 8, !tbaa !69
  %32 = icmp eq ptr %31, null
  br i1 %32, label %33, label %34

33:                                               ; preds = %18
  store i32 0, ptr %3, align 4
  store i32 1, ptr %9, align 4
  br label %74

34:                                               ; preds = %18
  store i32 0, ptr %6, align 4, !tbaa !16
  br label %35

35:                                               ; preds = %57, %34
  %36 = load i32, ptr %6, align 4, !tbaa !16
  %37 = load ptr, ptr %7, align 8, !tbaa !67
  %38 = call ptr @ossl_check_const_X509_NAME_ENTRY_sk_type(ptr noundef %37)
  %39 = call i32 @OPENSSL_sk_num(ptr noundef %38)
  %40 = icmp slt i32 %36, %39
  br i1 %40, label %41, label %60

41:                                               ; preds = %35
  %42 = load ptr, ptr %7, align 8, !tbaa !67
  %43 = call ptr @ossl_check_const_X509_NAME_ENTRY_sk_type(ptr noundef %42)
  %44 = load i32, ptr %6, align 4, !tbaa !16
  %45 = call ptr @OPENSSL_sk_value(ptr noundef %43, i32 noundef %44)
  store ptr %45, ptr %8, align 8, !tbaa !70
  %46 = load ptr, ptr %4, align 8, !tbaa !48
  %47 = getelementptr inbounds nuw %struct.DIST_POINT_NAME_st, ptr %46, i32 0, i32 2
  %48 = load ptr, ptr %47, align 8, !tbaa !69
  %49 = load ptr, ptr %8, align 8, !tbaa !70
  %50 = load i32, ptr %6, align 4, !tbaa !16
  %51 = icmp ne i32 %50, 0
  %52 = select i1 %51, i32 0, i32 1
  %53 = call i32 @X509_NAME_add_entry(ptr noundef %48, ptr noundef %49, i32 noundef -1, i32 noundef %52)
  %54 = icmp ne i32 %53, 0
  br i1 %54, label %56, label %55

55:                                               ; preds = %41
  br label %68

56:                                               ; preds = %41
  br label %57

57:                                               ; preds = %56
  %58 = load i32, ptr %6, align 4, !tbaa !16
  %59 = add nsw i32 %58, 1
  store i32 %59, ptr %6, align 4, !tbaa !16
  br label %35, !llvm.loop !72

60:                                               ; preds = %35
  %61 = load ptr, ptr %4, align 8, !tbaa !48
  %62 = getelementptr inbounds nuw %struct.DIST_POINT_NAME_st, ptr %61, i32 0, i32 2
  %63 = load ptr, ptr %62, align 8, !tbaa !69
  %64 = call i32 @i2d_X509_NAME(ptr noundef %63, ptr noundef null)
  %65 = icmp sge i32 %64, 0
  br i1 %65, label %66, label %67

66:                                               ; preds = %60
  store i32 1, ptr %3, align 4
  store i32 1, ptr %9, align 4
  br label %74

67:                                               ; preds = %60
  br label %68

68:                                               ; preds = %67, %55
  %69 = load ptr, ptr %4, align 8, !tbaa !48
  %70 = getelementptr inbounds nuw %struct.DIST_POINT_NAME_st, ptr %69, i32 0, i32 2
  %71 = load ptr, ptr %70, align 8, !tbaa !69
  call void @X509_NAME_free(ptr noundef %71)
  %72 = load ptr, ptr %4, align 8, !tbaa !48
  %73 = getelementptr inbounds nuw %struct.DIST_POINT_NAME_st, ptr %72, i32 0, i32 2
  store ptr null, ptr %73, align 8, !tbaa !69
  store i32 0, ptr %3, align 4
  store i32 1, ptr %9, align 4
  br label %74

74:                                               ; preds = %68, %66, %33, %17
  call void @llvm.lifetime.end.p0(i64 8, ptr %8) #5
  call void @llvm.lifetime.end.p0(i64 8, ptr %7) #5
  call void @llvm.lifetime.end.p0(i64 4, ptr %6) #5
  %75 = load i32, ptr %3, align 4
  ret i32 %75
}