; Function Attrs: nounwind uwtable
define range(i32 0, 2) i32 @DIST_POINT_set_dpname(ptr noundef captures(address_is_null) %0, ptr noundef %1) local_unnamed_addr #1 {
  %3 = icmp eq ptr %0, null
  br i1 %3, label %27, label %4

4:                                                ; preds = %2
  %5 = load i32, ptr %0, align 8, !tbaa !20
  %.not = icmp eq i32 %5, 1
  br i1 %.not, label %6, label %27

6:                                                ; preds = %4
  %7 = getelementptr inbounds nuw i8, ptr %0, i64 8
  %8 = load ptr, ptr %7, align 8, !tbaa !19
  %9 = getelementptr inbounds nuw i8, ptr %0, i64 16
  %10 = load ptr, ptr %9, align 8, !tbaa !38
  tail call void @X509_NAME_free(ptr noundef %10) #5
  %11 = tail call ptr @X509_NAME_dup(ptr noundef %1) #5
  store ptr %11, ptr %9, align 8, !tbaa !38
  %12 = icmp eq ptr %11, null
  br i1 %12, label %27, label %.preheader

.preheader:                                       ; preds = %6
  %13 = tail call i32 @OPENSSL_sk_num(ptr noundef %8) #5
  %14 = icmp sgt i32 %13, 0
  br i1 %14, label %.lr.ph, label %._crit_edge

15:                                               ; preds = %.lr.ph
  %16 = add nuw nsw i32 %.01822, 1
  %17 = tail call i32 @OPENSSL_sk_num(ptr noundef %8) #5
  %18 = icmp slt i32 %16, %17
  br i1 %18, label %.lr.ph, label %._crit_edge, !llvm.loop !39

.lr.ph:                                           ; preds = %.preheader, %15
  %.01822 = phi i32 [ %16, %15 ], [ 0, %.preheader ]
  %19 = tail call ptr @OPENSSL_sk_value(ptr noundef %8, i32 noundef %.01822) #5
  %20 = load ptr, ptr %9, align 8, !tbaa !38
  %.not20 = icmp eq i32 %.01822, 0
  %21 = zext i1 %.not20 to i32
  %22 = tail call i32 @X509_NAME_add_entry(ptr noundef %20, ptr noundef %19, i32 noundef -1, i32 noundef %21) #5
  %.not21 = icmp eq i32 %22, 0
  br i1 %.not21, label %.loopexit, label %15

._crit_edge:                                      ; preds = %15, %.preheader
  %23 = load ptr, ptr %9, align 8, !tbaa !38
  %24 = tail call i32 @i2d_X509_NAME(ptr noundef %23, ptr noundef null) #5
  %25 = icmp sgt i32 %24, -1
  br i1 %25, label %27, label %.loopexit

.loopexit:                                        ; preds = %.lr.ph, %._crit_edge
  %26 = load ptr, ptr %9, align 8, !tbaa !38
  tail call void @X509_NAME_free(ptr noundef %26) #5
  store ptr null, ptr %9, align 8, !tbaa !38
  br label %27

27:                                               ; preds = %._crit_edge, %6, %2, %4, %.loopexit
  %.0 = phi i32 [ 0, %.loopexit ], [ 1, %4 ], [ 1, %2 ], [ 0, %6 ], [ 1, %._crit_edge ]
  ret i32 %.0
}